; ModuleID = '51/916.c'
source_filename = "51/916.c"
target datalayout = "e-m:e-p270:32:32-p271:32:32-p272:64:64-i64:64-f80:128-n8:16:32:64-S128"
target triple = "x86_64-pc-linux-gnu"

@.str = private unnamed_addr constant [3 x i8] c"%d\00", align 1
@.str.1 = private unnamed_addr constant [3 x i8] c"%s\00", align 1
@.str.2 = private unnamed_addr constant [3 x i8] c"NO\00", align 1
@.str.3 = private unnamed_addr constant [4 x i8] c"%d\0A\00", align 1
@.str.4 = private unnamed_addr constant [4 x i8] c"%s\0A\00", align 1

; Function Attrs: noinline nounwind uwtable
define dso_local i32 @main() #0 {
  %1 = alloca i32, align 4
  %2 = alloca i32, align 4
  %3 = alloca i32, align 4
  %4 = alloca i32, align 4
  %5 = alloca i32, align 4
  %6 = alloca i32, align 4
  %7 = alloca i32, align 4
  %8 = alloca i32, align 4
  %9 = alloca i32, align 4
  %10 = alloca i32, align 4
  %11 = alloca [505 x i8], align 16
  %12 = alloca [10 x i8], align 1
  %13 = alloca [700 x [10 x i8]], align 16
  %14 = alloca [700 x i32], align 16
  store i32 0, i32* %1, align 4
  %15 = bitcast [700 x i32]* %14 to i8*
  call void @llvm.memset.p0i8.i64(i8* align 16 %15, i8 0, i64 2800, i1 false)
  %16 = call i32 (i8*, ...) @__isoc99_scanf(i8* getelementptr inbounds ([3 x i8], [3 x i8]* @.str, i64 0, i64 0), i32* %2)
  %17 = getelementptr inbounds [505 x i8], [505 x i8]* %11, i64 0, i64 0
  %18 = call i32 (i8*, ...) @__isoc99_scanf(i8* getelementptr inbounds ([3 x i8], [3 x i8]* @.str.1, i64 0, i64 0), i8* %17)
  %19 = getelementptr inbounds [505 x i8], [505 x i8]* %11, i64 0, i64 0
  %20 = call i64 @strlen(i8* %19) #5
  %21 = trunc i64 %20 to i32
  store i32 %21, i32* %7, align 4
  %22 = load i32, i32* %7, align 4
  %23 = load i32, i32* %2, align 4
  %24 = sub nsw i32 %22, %23
  %25 = add nsw i32 %24, 1
  store i32 %25, i32* %9, align 4
  store i32 0, i32* %4, align 4
  br label %26

26:                                               ; preds = %53, %0
  %27 = load i32, i32* %4, align 4
  %28 = load i32, i32* %9, align 4
  %29 = icmp slt i32 %27, %28
  br i1 %29, label %30, label %56

30:                                               ; preds = %26
  %31 = load i32, i32* %4, align 4
  store i32 %31, i32* %6, align 4
  store i32 0, i32* %5, align 4
  br label %32

32:                                               ; preds = %49, %30
  %33 = load i32, i32* %5, align 4
  %34 = load i32, i32* %2, align 4
  %35 = icmp slt i32 %33, %34
  br i1 %35, label %36, label %52

36:                                               ; preds = %32
  %37 = load i32, i32* %6, align 4
  %38 = sext i32 %37 to i64
  %39 = getelementptr inbounds [505 x i8], [505 x i8]* %11, i64 0, i64 %38
  %40 = load i8, i8* %39, align 1
  %41 = load i32, i32* %4, align 4
  %42 = sext i32 %41 to i64
  %43 = getelementptr inbounds [700 x [10 x i8]], [700 x [10 x i8]]* %13, i64 0, i64 %42
  %44 = load i32, i32* %5, align 4
  %45 = sext i32 %44 to i64
  %46 = getelementptr inbounds [10 x i8], [10 x i8]* %43, i64 0, i64 %45
  store i8 %40, i8* %46, align 1
  %47 = load i32, i32* %6, align 4
  %48 = add nsw i32 %47, 1
  store i32 %48, i32* %6, align 4
  br label %49

49:                                               ; preds = %36
  %50 = load i32, i32* %5, align 4
  %51 = add nsw i32 %50, 1
  store i32 %51, i32* %5, align 4
  br label %32

52:                                               ; preds = %32
  br label %53

53:                                               ; preds = %52
  %54 = load i32, i32* %4, align 4
  %55 = add nsw i32 %54, 1
  store i32 %55, i32* %4, align 4
  br label %26

56:                                               ; preds = %26
  store i32 0, i32* %4, align 4
  br label %57

57:                                               ; preds = %88, %56
  %58 = load i32, i32* %4, align 4
  %59 = load i32, i32* %9, align 4
  %60 = icmp slt i32 %58, %59
  br i1 %60, label %61, label %91

61:                                               ; preds = %57
  store i32 0, i32* %6, align 4
  br label %62

62:                                               ; preds = %84, %61
  %63 = load i32, i32* %6, align 4
  %64 = load i32, i32* %4, align 4
  %65 = icmp slt i32 %63, %64
  br i1 %65, label %66, label %87

66:                                               ; preds = %62
  %67 = load i32, i32* %4, align 4
  %68 = sext i32 %67 to i64
  %69 = getelementptr inbounds [700 x [10 x i8]], [700 x [10 x i8]]* %13, i64 0, i64 %68
  %70 = getelementptr inbounds [10 x i8], [10 x i8]* %69, i64 0, i64 0
  %71 = load i32, i32* %6, align 4
  %72 = sext i32 %71 to i64
  %73 = getelementptr inbounds [700 x [10 x i8]], [700 x [10 x i8]]* %13, i64 0, i64 %72
  %74 = getelementptr inbounds [10 x i8], [10 x i8]* %73, i64 0, i64 0
  %75 = call i32 @strcmp(i8* %70, i8* %74) #5
  %76 = icmp eq i32 %75, 0
  br i1 %76, label %77, label %83

77:                                               ; preds = %66
  %78 = load i32, i32* %6, align 4
  %79 = sext i32 %78 to i64
  %80 = getelementptr inbounds [700 x i32], [700 x i32]* %14, i64 0, i64 %79
  %81 = load i32, i32* %80, align 4
  %82 = add nsw i32 %81, 1
  store i32 %82, i32* %80, align 4
  br label %87

83:                                               ; preds = %66
  br label %84

84:                                               ; preds = %83
  %85 = load i32, i32* %6, align 4
  %86 = add nsw i32 %85, 1
  store i32 %86, i32* %6, align 4
  br label %62

87:                                               ; preds = %77, %62
  br label %88

88:                                               ; preds = %87
  %89 = load i32, i32* %4, align 4
  %90 = add nsw i32 %89, 1
  store i32 %90, i32* %4, align 4
  br label %57

91:                                               ; preds = %57
  store i32 0, i32* %4, align 4
  br label %92

92:                                               ; preds = %159, %91
  %93 = load i32, i32* %4, align 4
  %94 = load i32, i32* %9, align 4
  %95 = icmp slt i32 %93, %94
  br i1 %95, label %96, label %162

96:                                               ; preds = %92
  store i32 0, i32* %5, align 4
  br label %97

97:                                               ; preds = %155, %96
  %98 = load i32, i32* %5, align 4
  %99 = load i32, i32* %9, align 4
  %100 = sub nsw i32 %99, 1
  %101 = icmp slt i32 %98, %100
  br i1 %101, label %102, label %158

102:                                              ; preds = %97
  %103 = load i32, i32* %5, align 4
  %104 = sext i32 %103 to i64
  %105 = getelementptr inbounds [700 x i32], [700 x i32]* %14, i64 0, i64 %104
  %106 = load i32, i32* %105, align 4
  %107 = load i32, i32* %5, align 4
  %108 = add nsw i32 %107, 1
  %109 = sext i32 %108 to i64
  %110 = getelementptr inbounds [700 x i32], [700 x i32]* %14, i64 0, i64 %109
  %111 = load i32, i32* %110, align 4
  %112 = icmp slt i32 %106, %111
  br i1 %112, label %113, label %154

113:                                              ; preds = %102
  %114 = load i32, i32* %5, align 4
  %115 = sext i32 %114 to i64
  %116 = getelementptr inbounds [700 x i32], [700 x i32]* %14, i64 0, i64 %115
  %117 = load i32, i32* %116, align 4
  store i32 %117, i32* %10, align 4
  %118 = getelementptr inbounds [10 x i8], [10 x i8]* %12, i64 0, i64 0
  %119 = load i32, i32* %5, align 4
  %120 = sext i32 %119 to i64
  %121 = getelementptr inbounds [700 x [10 x i8]], [700 x [10 x i8]]* %13, i64 0, i64 %120
  %122 = getelementptr inbounds [10 x i8], [10 x i8]* %121, i64 0, i64 0
  %123 = call i8* @strcpy(i8* %118, i8* %122) #6
  %124 = load i32, i32* %5, align 4
  %125 = add nsw i32 %124, 1
  %126 = sext i32 %125 to i64
  %127 = getelementptr inbounds [700 x i32], [700 x i32]* %14, i64 0, i64 %126
  %128 = load i32, i32* %127, align 4
  %129 = load i32, i32* %5, align 4
  %130 = sext i32 %129 to i64
  %131 = getelementptr inbounds [700 x i32], [700 x i32]* %14, i64 0, i64 %130
  store i32 %128, i32* %131, align 4
  %132 = load i32, i32* %5, align 4
  %133 = sext i32 %132 to i64
  %134 = getelementptr inbounds [700 x [10 x i8]], [700 x [10 x i8]]* %13, i64 0, i64 %133
  %135 = getelementptr inbounds [10 x i8], [10 x i8]* %134, i64 0, i64 0
  %136 = load i32, i32* %5, align 4
  %137 = add nsw i32 %136, 1
  %138 = sext i32 %137 to i64
  %139 = getelementptr inbounds [700 x [10 x i8]], [700 x [10 x i8]]* %13, i64 0, i64 %138
  %140 = getelementptr inbounds [10 x i8], [10 x i8]* %139, i64 0, i64 0
  %141 = call i8* @strcpy(i8* %135, i8* %140) #6
  %142 = load i32, i32* %10, align 4
  %143 = load i32, i32* %5, align 4
  %144 = add nsw i32 %143, 1
  %145 = sext i32 %144 to i64
  %146 = getelementptr inbounds [700 x i32], [700 x i32]* %14, i64 0, i64 %145
  store i32 %142, i32* %146, align 4
  %147 = load i32, i32* %5, align 4
  %148 = add nsw i32 %147, 1
  %149 = sext i32 %148 to i64
  %150 = getelementptr inbounds [700 x [10 x i8]], [700 x [10 x i8]]* %13, i64 0, i64 %149
  %151 = getelementptr inbounds [10 x i8], [10 x i8]* %150, i64 0, i64 0
  %152 = getelementptr inbounds [10 x i8], [10 x i8]* %12, i64 0, i64 0
  %153 = call i8* @strcpy(i8* %151, i8* %152) #6
  br label %154

154:                                              ; preds = %113, %102
  br label %155

155:                                              ; preds = %154
  %156 = load i32, i32* %5, align 4
  %157 = add nsw i32 %156, 1
  store i32 %157, i32* %5, align 4
  br label %97

158:                                              ; preds = %97
  br label %159

159:                                              ; preds = %158
  %160 = load i32, i32* %4, align 4
  %161 = add nsw i32 %160, 1
  store i32 %161, i32* %4, align 4
  br label %92

162:                                              ; preds = %92
  %163 = getelementptr inbounds [700 x i32], [700 x i32]* %14, i64 0, i64 0
  %164 = load i32, i32* %163, align 16
  %165 = icmp eq i32 %164, 0
  br i1 %165, label %166, label %168

166:                                              ; preds = %162
  %167 = call i32 (i8*, ...) @printf(i8* getelementptr inbounds ([3 x i8], [3 x i8]* @.str.2, i64 0, i64 0))
  br label %218

168:                                              ; preds = %162
  store i32 0, i32* %4, align 4
  br label %169

169:                                              ; preds = %189, %168
  %170 = load i32, i32* %4, align 4
  %171 = load i32, i32* %9, align 4
  %172 = sub nsw i32 %171, 1
  %173 = icmp slt i32 %170, %172
  br i1 %173, label %174, label %192

174:                                              ; preds = %169
  %175 = load i32, i32* %4, align 4
  %176 = sext i32 %175 to i64
  %177 = getelementptr inbounds [700 x i32], [700 x i32]* %14, i64 0, i64 %176
  %178 = load i32, i32* %177, align 4
  %179 = load i32, i32* %4, align 4
  %180 = add nsw i32 %179, 1
  %181 = sext i32 %180 to i64
  %182 = getelementptr inbounds [700 x i32], [700 x i32]* %14, i64 0, i64 %181
  %183 = load i32, i32* %182, align 4
  %184 = icmp ne i32 %178, %183
  br i1 %184, label %185, label %188

185:                                              ; preds = %174
  %186 = load i32, i32* %4, align 4
  %187 = add nsw i32 %186, 1
  store i32 %187, i32* %3, align 4
  br label %192

188:                                              ; preds = %174
  br label %189

189:                                              ; preds = %188
  %190 = load i32, i32* %4, align 4
  %191 = add nsw i32 %190, 1
  store i32 %191, i32* %4, align 4
  br label %169

192:                                              ; preds = %185, %169
  %193 = load i32, i32* %4, align 4
  %194 = load i32, i32* %9, align 4
  %195 = sub nsw i32 %194, 1
  %196 = icmp eq i32 %193, %195
  br i1 %196, label %197, label %199

197:                                              ; preds = %192
  %198 = load i32, i32* %9, align 4
  store i32 %198, i32* %3, align 4
  br label %199

199:                                              ; preds = %197, %192
  %200 = getelementptr inbounds [700 x i32], [700 x i32]* %14, i64 0, i64 0
  %201 = load i32, i32* %200, align 16
  %202 = add nsw i32 %201, 1
  %203 = call i32 (i8*, ...) @printf(i8* getelementptr inbounds ([4 x i8], [4 x i8]* @.str.3, i64 0, i64 0), i32 %202)
  store i32 0, i32* %8, align 4
  br label %204

204:                                              ; preds = %214, %199
  %205 = load i32, i32* %8, align 4
  %206 = load i32, i32* %3, align 4
  %207 = icmp slt i32 %205, %206
  br i1 %207, label %208, label %217

208:                                              ; preds = %204
  %209 = load i32, i32* %8, align 4
  %210 = sext i32 %209 to i64
  %211 = getelementptr inbounds [700 x [10 x i8]], [700 x [10 x i8]]* %13, i64 0, i64 %210
  %212 = getelementptr inbounds [10 x i8], [10 x i8]* %211, i64 0, i64 0
  %213 = call i32 (i8*, ...) @printf(i8* getelementptr inbounds ([4 x i8], [4 x i8]* @.str.4, i64 0, i64 0), i8* %212)
  br label %214

214:                                              ; preds = %208
  %215 = load i32, i32* %8, align 4
  %216 = add nsw i32 %215, 1
  store i32 %216, i32* %8, align 4
  br label %204

217:                                              ; preds = %204
  br label %218

218:                                              ; preds = %217, %166
  ret i32 0
}

; Function Attrs: argmemonly nounwind willreturn
declare void @llvm.memset.p0i8.i64(i8* nocapture writeonly, i8, i64, i1 immarg) #1

declare dso_local i32 @__isoc99_scanf(i8*, ...) #2

; Function Attrs: nounwind readonly
declare dso_local i64 @strlen(i8*) #3

; Function Attrs: nounwind readonly
declare dso_local i32 @strcmp(i8*, i8*) #3

; Function Attrs: nounwind
declare dso_local i8* @strcpy(i8*, i8*) #4

declare dso_local i32 @printf(i8*, ...) #2


!llvm.module.flags = !{!0}
!llvm.ident = !{!1}

!0 = !{i32 1, !"wchar_size", i32 4}
!1 = !{!"clang version 10.0.0-4ubuntu1 "}
